; Function Attrs: nounwind uwtable
define noalias nonnull ptr @l_Lean_Elab_Command_instInhabitedInductiveElabStep1___lambda__1___boxed(ptr noundef %0, ptr noundef %1, ptr noundef %2, ptr noundef %3, ptr noundef %4, ptr noundef %5, ptr noundef %6, ptr noundef %7, ptr noundef %8, ptr noundef %9) #1 {
  %11 = load ptr, ptr @l_Lean_Elab_Command_instInhabitedInductiveElabStep2___lambda__1___closed__2, align 8, !tbaa !12
  tail call void @lean_inc_heartbeat() #5
  %12 = tail call noalias ptr @mi_malloc_small(i64 noundef 24) #5
  %13 = icmp eq ptr %12, null
  br i1 %13, label %14, label %l_Lean_Elab_Command_instInhabitedInductiveElabStep1___lambda__1.exit

14:                                               ; preds = %10
  tail call void @lean_internal_panic_out_of_memory() #6
  unreachable

l_Lean_Elab_Command_instInhabitedInductiveElabStep1___lambda__1.exit: ; preds = %10
  %15 = getelementptr inbounds nuw i8, ptr %12, i64 4
  store i32 1, ptr %12, align 4, !tbaa !8
  store i32 16908312, ptr %15, align 4
  %16 = getelementptr inbounds nuw i8, ptr %12, i64 8
  store ptr %11, ptr %16, align 8, !tbaa !12
  %17 = getelementptr inbounds nuw i8, ptr %12, i64 16
  store ptr %9, ptr %17, align 8, !tbaa !12
  %18 = ptrtoint ptr %8 to i64
  %19 = and i64 %18, 1
  %.not = icmp eq i64 %19, 0
  br i1 %.not, label %20, label %lean_dec.exit27

20:                                               ; preds = %l_Lean_Elab_Command_instInhabitedInductiveElabStep1___lambda__1.exit
  %21 = load i32, ptr %8, align 4, !tbaa !8
  %22 = icmp sgt i32 %21, 1
  br i1 %22, label %23, label %25, !prof !11

23:                                               ; preds = %20
  %24 = add nsw i32 %21, -1
  store i32 %24, ptr %8, align 4, !tbaa !8
  br label %lean_dec.exit27

25:                                               ; preds = %20
  %.not.i = icmp eq i32 %21, 0
  br i1 %.not.i, label %lean_dec.exit27, label %26

26:                                               ; preds = %25
  tail call void @lean_dec_ref_cold(ptr noundef nonnull %8) #5
  br label %lean_dec.exit27

lean_dec.exit27:                                  ; preds = %26, %25, %23, %l_Lean_Elab_Command_instInhabitedInductiveElabStep1___lambda__1.exit
  %27 = ptrtoint ptr %7 to i64
  %28 = and i64 %27, 1
  %.not44 = icmp eq i64 %28, 0
  br i1 %.not44, label %29, label %lean_dec.exit26

29:                                               ; preds = %lean_dec.exit27
  %30 = load i32, ptr %7, align 4, !tbaa !8
  %31 = icmp sgt i32 %30, 1
  br i1 %31, label %32, label %34, !prof !11

32:                                               ; preds = %29
  %33 = add nsw i32 %30, -1
  store i32 %33, ptr %7, align 4, !tbaa !8
  br label %lean_dec.exit26

34:                                               ; preds = %29
  %.not.i28 = icmp eq i32 %30, 0
  br i1 %.not.i28, label %lean_dec.exit26, label %35

35:                                               ; preds = %34
  tail call void @lean_dec_ref_cold(ptr noundef nonnull %7) #5
  br label %lean_dec.exit26

lean_dec.exit26:                                  ; preds = %35, %34, %32, %lean_dec.exit27
  %36 = ptrtoint ptr %6 to i64
  %37 = and i64 %36, 1
  %.not45 = icmp eq i64 %37, 0
  br i1 %.not45, label %38, label %lean_dec.exit25

38:                                               ; preds = %lean_dec.exit26
  %39 = load i32, ptr %6, align 4, !tbaa !8
  %40 = icmp sgt i32 %39, 1
  br i1 %40, label %41, label %43, !prof !11

41:                                               ; preds = %38
  %42 = add nsw i32 %39, -1
  store i32 %42, ptr %6, align 4, !tbaa !8
  br label %lean_dec.exit25

43:                                               ; preds = %38
  %.not.i30 = icmp eq i32 %39, 0
  br i1 %.not.i30, label %lean_dec.exit25, label %44

44:                                               ; preds = %43
  tail call void @lean_dec_ref_cold(ptr noundef nonnull %6) #5
  br label %lean_dec.exit25

lean_dec.exit25:                                  ; preds = %44, %43, %41, %lean_dec.exit26
  %45 = ptrtoint ptr %5 to i64
  %46 = and i64 %45, 1
  %.not46 = icmp eq i64 %46, 0
  br i1 %.not46, label %47, label %lean_dec.exit24

47:                                               ; preds = %lean_dec.exit25
  %48 = load i32, ptr %5, align 4, !tbaa !8
  %49 = icmp sgt i32 %48, 1
  br i1 %49, label %50, label %52, !prof !11

50:                                               ; preds = %47
  %51 = add nsw i32 %48, -1
  store i32 %51, ptr %5, align 4, !tbaa !8
  br label %lean_dec.exit24

52:                                               ; preds = %47
  %.not.i32 = icmp eq i32 %48, 0
  br i1 %.not.i32, label %lean_dec.exit24, label %53

53:                                               ; preds = %52
  tail call void @lean_dec_ref_cold(ptr noundef nonnull %5) #5
  br label %lean_dec.exit24

lean_dec.exit24:                                  ; preds = %53, %52, %50, %lean_dec.exit25
  %54 = ptrtoint ptr %4 to i64
  %55 = and i64 %54, 1
  %.not47 = icmp eq i64 %55, 0
  br i1 %.not47, label %56, label %lean_dec.exit23

56:                                               ; preds = %lean_dec.exit24
  %57 = load i32, ptr %4, align 4, !tbaa !8
  %58 = icmp sgt i32 %57, 1
  br i1 %58, label %59, label %61, !prof !11

59:                                               ; preds = %56
  %60 = add nsw i32 %57, -1
  store i32 %60, ptr %4, align 4, !tbaa !8
  br label %lean_dec.exit23

61:                                               ; preds = %56
  %.not.i34 = icmp eq i32 %57, 0
  br i1 %.not.i34, label %lean_dec.exit23, label %62

62:                                               ; preds = %61
  tail call void @lean_dec_ref_cold(ptr noundef nonnull %4) #5
  br label %lean_dec.exit23

lean_dec.exit23:                                  ; preds = %62, %61, %59, %lean_dec.exit24
  %63 = ptrtoint ptr %3 to i64
  %64 = and i64 %63, 1
  %.not48 = icmp eq i64 %64, 0
  br i1 %.not48, label %65, label %lean_dec.exit22

65:                                               ; preds = %lean_dec.exit23
  %66 = load i32, ptr %3, align 4, !tbaa !8
  %67 = icmp sgt i32 %66, 1
  br i1 %67, label %68, label %70, !prof !11

68:                                               ; preds = %65
  %69 = add nsw i32 %66, -1
  store i32 %69, ptr %3, align 4, !tbaa !8
  br label %lean_dec.exit22

70:                                               ; preds = %65
  %.not.i36 = icmp eq i32 %66, 0
  br i1 %.not.i36, label %lean_dec.exit22, label %71

71:                                               ; preds = %70
  tail call void @lean_dec_ref_cold(ptr noundef nonnull %3) #5
  br label %lean_dec.exit22

lean_dec.exit22:                                  ; preds = %71, %70, %68, %lean_dec.exit23
  %72 = ptrtoint ptr %2 to i64
  %73 = and i64 %72, 1
  %.not49 = icmp eq i64 %73, 0
  br i1 %.not49, label %74, label %lean_dec.exit21

74:                                               ; preds = %lean_dec.exit22
  %75 = load i32, ptr %2, align 4, !tbaa !8
  %76 = icmp sgt i32 %75, 1
  br i1 %76, label %77, label %79, !prof !11

77:                                               ; preds = %74
  %78 = add nsw i32 %75, -1
  store i32 %78, ptr %2, align 4, !tbaa !8
  br label %lean_dec.exit21

79:                                               ; preds = %74
  %.not.i38 = icmp eq i32 %75, 0
  br i1 %.not.i38, label %lean_dec.exit21, label %80

80:                                               ; preds = %79
  tail call void @lean_dec_ref_cold(ptr noundef nonnull %2) #5
  br label %lean_dec.exit21

lean_dec.exit21:                                  ; preds = %80, %79, %77, %lean_dec.exit22
  %81 = ptrtoint ptr %1 to i64
  %82 = and i64 %81, 1
  %.not50 = icmp eq i64 %82, 0
  br i1 %.not50, label %83, label %lean_dec.exit20

83:                                               ; preds = %lean_dec.exit21
  %84 = load i32, ptr %1, align 4, !tbaa !8
  %85 = icmp sgt i32 %84, 1
  br i1 %85, label %86, label %88, !prof !11

86:                                               ; preds = %83
  %87 = add nsw i32 %84, -1
  store i32 %87, ptr %1, align 4, !tbaa !8
  br label %lean_dec.exit20

88:                                               ; preds = %83
  %.not.i40 = icmp eq i32 %84, 0
  br i1 %.not.i40, label %lean_dec.exit20, label %89

89:                                               ; preds = %88
  tail call void @lean_dec_ref_cold(ptr noundef nonnull %1) #5
  br label %lean_dec.exit20

lean_dec.exit20:                                  ; preds = %89, %88, %86, %lean_dec.exit21
  %90 = ptrtoint ptr %0 to i64
  %91 = and i64 %90, 1
  %.not51 = icmp eq i64 %91, 0
  br i1 %.not51, label %92, label %lean_dec.exit

92:                                               ; preds = %lean_dec.exit20
  %93 = load i32, ptr %0, align 4, !tbaa !8
  %94 = icmp sgt i32 %93, 1
  br i1 %94, label %95, label %97, !prof !11

95:                                               ; preds = %92
  %96 = add nsw i32 %93, -1
  store i32 %96, ptr %0, align 4, !tbaa !8
  br label %lean_dec.exit

97:                                               ; preds = %92
  %.not.i42 = icmp eq i32 %93, 0
  br i1 %.not.i42, label %lean_dec.exit, label %98

98:                                               ; preds = %97
  tail call void @lean_dec_ref_cold(ptr noundef nonnull %0) #5
  br label %lean_dec.exit

lean_dec.exit:                                    ; preds = %98, %97, %95, %lean_dec.exit20
  ret ptr %12
}